; ModuleID = '11/137.c'
source_filename = "11/137.c"
target datalayout = "e-m:e-p270:32:32-p271:32:32-p272:64:64-i64:64-f80:128-n8:16:32:64-S128"
target triple = "x86_64-pc-linux-gnu"

@__const.main.monthday = private unnamed_addr constant [12 x i32] [i32 31, i32 28, i32 31, i32 30, i32 31, i32 30, i32 31, i32 31, i32 30, i32 31, i32 30, i32 31], align 16
@.str = private unnamed_addr constant [7 x i8] c"%d%d%d\00", align 1
@.str.1 = private unnamed_addr constant [3 x i8] c"%d\00", align 1

; Function Attrs: noinline nounwind uwtable
define dso_local i32 @main(i32 %0, i8** %1) #0 {
  %3 = alloca i32, align 4
  %4 = alloca i32, align 4
  %5 = alloca i8**, align 8
  %6 = alloca i32, align 4
  %7 = alloca i32, align 4
  %8 = alloca i32, align 4
  %9 = alloca [12 x i32], align 16
  %10 = alloca i32, align 4
  %11 = alloca i32, align 4
  %12 = alloca i32, align 4
  store i32 0, i32* %3, align 4
  store i32 %0, i32* %4, align 4
  store i8** %1, i8*** %5, align 8
  %13 = bitcast [12 x i32]* %9 to i8*
  call void @llvm.memcpy.p0i8.p0i8.i64(i8* align 16 %13, i8* align 16 bitcast ([12 x i32]* @__const.main.monthday to i8*), i64 48, i1 false)
  %14 = call i32 (i8*, ...) @__isoc99_scanf(i8* getelementptr inbounds ([7 x i8], [7 x i8]* @.str, i64 0, i64 0), i32* %6, i32* %7, i32* %8)
  store i32 0, i32* %11, align 4
  store i32 1, i32* %10, align 4
  br label %15

15:                                               ; preds = %27, %2
  %16 = load i32, i32* %10, align 4
  %17 = load i32, i32* %7, align 4
  %18 = icmp slt i32 %16, %17
  br i1 %18, label %19, label %30

19:                                               ; preds = %15
  %20 = load i32, i32* %11, align 4
  %21 = load i32, i32* %10, align 4
  %22 = sub nsw i32 %21, 1
  %23 = sext i32 %22 to i64
  %24 = getelementptr inbounds [12 x i32], [12 x i32]* %9, i64 0, i64 %23
  %25 = load i32, i32* %24, align 4
  %26 = add nsw i32 %20, %25
  store i32 %26, i32* %11, align 4
  br label %27

27:                                               ; preds = %19
  %28 = load i32, i32* %10, align 4
  %29 = add nsw i32 %28, 1
  store i32 %29, i32* %10, align 4
  br label %15

30:                                               ; preds = %15
  %31 = load i32, i32* %11, align 4
  %32 = load i32, i32* %8, align 4
  %33 = add nsw i32 %31, %32
  store i32 %33, i32* %11, align 4
  %34 = load i32, i32* %6, align 4
  %35 = srem i32 %34, 4
  store i32 %35, i32* %12, align 4
  %36 = load i32, i32* %7, align 4
  %37 = icmp sgt i32 %36, 2
  br i1 %37, label %38, label %44

38:                                               ; preds = %30
  %39 = load i32, i32* %12, align 4
  %40 = icmp eq i32 %39, 0
  br i1 %40, label %41, label %44

41:                                               ; preds = %38
  %42 = load i32, i32* %11, align 4
  %43 = add nsw i32 %42, 1
  store i32 %43, i32* %11, align 4
  br label %44

44:                                               ; preds = %41, %38, %30
  %45 = load i32, i32* %11, align 4
  %46 = call i32 (i8*, ...) @printf(i8* getelementptr inbounds ([3 x i8], [3 x i8]* @.str.1, i64 0, i64 0), i32 %45)
  ret i32 0
}

; Function Attrs: argmemonly nounwind willreturn
declare void @llvm.memcpy.p0i8.p0i8.i64(i8* noalias nocapture writeonly, i8* noalias nocapture readonly, i64, i1 immarg) #1

declare dso_local i32 @__isoc99_scanf(i8*, ...) #2

declare dso_local i32 @printf(i8*, ...) #2


!llvm.module.flags = !{!0}
!llvm.ident = !{!1}

!0 = !{i32 1, !"wchar_size", i32 4}
!1 = !{!"clang version 10.0.0-4ubuntu1 "}
